target datalayout = "e-m:e-p270:32:32-p271:32:32-p272:64:64-i64:64-i128:128-f80:128-n8:16:32:64-S128"
target triple = "x86_64-pc-linux-gnu"

%struct.lv_subject_t = type { %struct.lv_ll_t, %union.lv_subject_value_t, %union.lv_subject_value_t, ptr, i32 }
%struct.lv_ll_t = type { i32, ptr, ptr }
%union.lv_subject_value_t = type { ptr }
%struct._lv_observer_t = type { ptr, ptr, ptr, ptr, i8 }

; Function Attrs: nounwind uwtable
define void @lv_observer_remove(ptr noundef %0) #0 {
  %2 = alloca ptr, align 8
  store ptr %0, ptr %2, align 8, !tbaa !17
  br label %3

3:                                                ; preds = %1
  %4 = load ptr, ptr %2, align 8, !tbaa !17
  %5 = icmp ne ptr %4, null
  br i1 %5, label %10, label %6

6:                                                ; preds = %3
  br label %7

7:                                                ; preds = %6
  br label %8

8:                                                ; preds = %7
  br label %9

9:                                                ; preds = %8, %9
  br label %9

10:                                               ; preds = %3
  br label %11

11:                                               ; preds = %10
  %12 = load ptr, ptr %2, align 8, !tbaa !17
  %13 = getelementptr inbounds nuw %struct._lv_observer_t, ptr %12, i32 0, i32 0
  %14 = load ptr, ptr %13, align 8, !tbaa !25
  %15 = getelementptr inbounds nuw %struct.lv_subject_t, ptr %14, i32 0, i32 4
  %16 = load i32, ptr %15, align 8
  %17 = and i32 %16, -268435457
  %18 = or i32 %17, 268435456
  store i32 %18, ptr %15, align 8
  %19 = load ptr, ptr %2, align 8, !tbaa !17
  %20 = getelementptr inbounds nuw %struct._lv_observer_t, ptr %19, i32 0, i32 0
  %21 = load ptr, ptr %20, align 8, !tbaa !25
  %22 = getelementptr inbounds nuw %struct.lv_subject_t, ptr %21, i32 0, i32 0
  %23 = load ptr, ptr %2, align 8, !tbaa !17
  call void @lv_ll_remove(ptr noundef %22, ptr noundef %23)
  %24 = load ptr, ptr %2, align 8, !tbaa !17
  %25 = getelementptr inbounds nuw %struct._lv_observer_t, ptr %24, i32 0, i32 4
  %26 = load i8, ptr %25, align 8
  %27 = and i8 %26, 1
  %28 = zext i8 %27 to i32
  %29 = icmp ne i32 %28, 0
  br i1 %29, label %30, label %34

30:                                               ; preds = %11
  %31 = load ptr, ptr %2, align 8, !tbaa !17
  %32 = getelementptr inbounds nuw %struct._lv_observer_t, ptr %31, i32 0, i32 3
  %33 = load ptr, ptr %32, align 8, !tbaa !19
  call void @lv_free(ptr noundef %33)
  br label %34

34:                                               ; preds = %30, %11
  %35 = load ptr, ptr %2, align 8, !tbaa !17
  call void @lv_free(ptr noundef %35)
  ret void
}

; Function Attrs: nounwind uwtable
define void @lv_subject_deinit(ptr noundef %0) #0 {
  %2 = alloca ptr, align 8
  %3 = alloca ptr, align 8
  %4 = alloca ptr, align 8
  store ptr %0, ptr %2, align 8, !tbaa !3
  call void @llvm.lifetime.start.p0(i64 8, ptr %3) #6
  %5 = load ptr, ptr %2, align 8, !tbaa !3
  %6 = getelementptr inbounds nuw %struct.lv_subject_t, ptr %5, i32 0, i32 0
  %7 = call ptr @lv_ll_get_head(ptr noundef %6)
  store ptr %7, ptr %3, align 8, !tbaa !17
  br label %8

8:                                                ; preds = %33, %1
  %9 = load ptr, ptr %3, align 8, !tbaa !17
  %10 = icmp ne ptr %9, null
  br i1 %10, label %11, label %36

11:                                               ; preds = %8
  call void @llvm.lifetime.start.p0(i64 8, ptr %4) #6
  %12 = load ptr, ptr %2, align 8, !tbaa !3
  %13 = getelementptr inbounds nuw %struct.lv_subject_t, ptr %12, i32 0, i32 0
  %14 = load ptr, ptr %3, align 8, !tbaa !17
  %15 = call ptr @lv_ll_get_next(ptr noundef %13, ptr noundef %14)
  store ptr %15, ptr %4, align 8, !tbaa !17
  %16 = load ptr, ptr %3, align 8, !tbaa !17
  %17 = getelementptr inbounds nuw %struct._lv_observer_t, ptr %16, i32 0, i32 4
  %18 = load i8, ptr %17, align 8
  %19 = lshr i8 %18, 2
  %20 = and i8 %19, 1
  %21 = zext i8 %20 to i32
  %22 = icmp ne i32 %21, 0
  br i1 %22, label %23, label %33

23:                                               ; preds = %11
  %24 = load ptr, ptr %3, align 8, !tbaa !17
  %25 = getelementptr inbounds nuw %struct._lv_observer_t, ptr %24, i32 0, i32 2
  %26 = load ptr, ptr %25, align 8, !tbaa !21
  %27 = call zeroext i1 @lv_obj_remove_event_cb(ptr noundef %26, ptr noundef @unsubscribe_on_delete_cb)
  %28 = load ptr, ptr %3, align 8, !tbaa !17
  %29 = getelementptr inbounds nuw %struct._lv_observer_t, ptr %28, i32 0, i32 2
  %30 = load ptr, ptr %29, align 8, !tbaa !21
  %31 = load ptr, ptr %2, align 8, !tbaa !3
  %32 = call i32 @lv_obj_remove_event_cb_with_user_data(ptr noundef %30, ptr noundef null, ptr noundef %31)
  br label %33

33:                                               ; preds = %23, %11
  %34 = load ptr, ptr %3, align 8, !tbaa !17
  call void @lv_observer_remove(ptr noundef %34)
  %35 = load ptr, ptr %4, align 8, !tbaa !17
  store ptr %35, ptr %3, align 8, !tbaa !17
  call void @llvm.lifetime.end.p0(i64 8, ptr %4) #6
  br label %8, !llvm.loop !22

36:                                               ; preds = %8
  %37 = load ptr, ptr %2, align 8, !tbaa !3
  %38 = getelementptr inbounds nuw %struct.lv_subject_t, ptr %37, i32 0, i32 0
  call void @lv_ll_clear(ptr noundef %38)
  call void @llvm.lifetime.end.p0(i64 8, ptr %3) #6
  ret void
}