; Function Attrs: nounwind uwtable
define void @lv_subject_deinit(ptr noundef %0) local_unnamed_addr #0 {
  %2 = tail call ptr @lv_ll_get_head(ptr noundef %0) #9
  %.not12 = icmp eq ptr %2, null
  br i1 %.not12, label %._crit_edge, label %.lr.ph

.lr.ph:                                           ; preds = %1, %lv_observer_remove.exit
  %.013 = phi ptr [ %3, %lv_observer_remove.exit ], [ %2, %1 ]
  %3 = tail call ptr @lv_ll_get_next(ptr noundef %0, ptr noundef nonnull %.013) #9
  %4 = getelementptr inbounds nuw i8, ptr %.013, i64 32
  %5 = load i8, ptr %4, align 8
  %6 = and i8 %5, 4
  %.not11 = icmp eq i8 %6, 0
  br i1 %.not11, label %13, label %7

7:                                                ; preds = %.lr.ph
  %8 = getelementptr inbounds nuw i8, ptr %.013, i64 16
  %9 = load ptr, ptr %8, align 8, !tbaa !14
  %10 = tail call zeroext i1 @lv_obj_remove_event_cb(ptr noundef %9, ptr noundef nonnull @unsubscribe_on_delete_cb) #9
  %11 = load ptr, ptr %8, align 8, !tbaa !14
  %12 = tail call i32 @lv_obj_remove_event_cb_with_user_data(ptr noundef %11, ptr noundef null, ptr noundef %0) #9
  br label %13

13:                                               ; preds = %.lr.ph, %7
  %14 = load ptr, ptr %.013, align 8, !tbaa !9
  %15 = getelementptr inbounds nuw i8, ptr %14, i64 48
  %16 = load i32, ptr %15, align 8
  %17 = or i32 %16, 268435456
  store i32 %17, ptr %15, align 8
  %18 = load ptr, ptr %.013, align 8, !tbaa !9
  tail call void @lv_ll_remove(ptr noundef %18, ptr noundef nonnull %.013) #9
  %19 = load i8, ptr %4, align 8
  %20 = and i8 %19, 1
  %.not7.i = icmp eq i8 %20, 0
  br i1 %.not7.i, label %lv_observer_remove.exit, label %21

21:                                               ; preds = %13
  %22 = getelementptr inbounds nuw i8, ptr %.013, i64 24
  %23 = load ptr, ptr %22, align 8, !tbaa !13
  tail call void @lv_free(ptr noundef %23) #9
  br label %lv_observer_remove.exit

lv_observer_remove.exit:                          ; preds = %13, %21
  tail call void @lv_free(ptr noundef nonnull %.013) #9
  %.not = icmp eq ptr %3, null
  br i1 %.not, label %._crit_edge, label %.lr.ph, !llvm.loop !17

._crit_edge:                                      ; preds = %lv_observer_remove.exit, %1
  tail call void @lv_ll_clear(ptr noundef %0) #9
  ret void
}